target datalayout = "e-m:e-p270:32:32-p271:32:32-p272:64:64-i64:64-i128:128-f80:128-n8:16:32:64-S128"
target triple = "x86_64-pc-linux-gnu"

%struct.lxb_html_tree = type { ptr, ptr, ptr, ptr, ptr, ptr, ptr, %struct.lxb_html_tree_pending_table_t, ptr, i8, i8, i8, i8, i8, i8, ptr, ptr, ptr, i32, i64 }
%struct.lxb_html_tree_pending_table_t = type { ptr, i8 }
%struct.lexbor_array_t = type { ptr, i64, i64 }
%struct.lxb_dom_node = type { %struct.lxb_dom_event_target, i64, i64, i64, ptr, ptr, ptr, ptr, ptr, ptr, ptr, i32, i64 }
%struct.lxb_dom_event_target = type { ptr }

; Function Attrs: inlinehint nounwind uwtable
define internal ptr @lexbor_array_get(ptr noundef %0, i64 noundef %1) #3 {
  %3 = alloca ptr, align 8
  %4 = alloca ptr, align 8
  %5 = alloca i64, align 8
  store ptr %0, ptr %4, align 8, !tbaa !9
  store i64 %1, ptr %5, align 8, !tbaa !50
  %6 = load i64, ptr %5, align 8, !tbaa !50
  %7 = load ptr, ptr %4, align 8, !tbaa !9
  %8 = getelementptr inbounds nuw %struct.lexbor_array_t, ptr %7, i32 0, i32 2
  %9 = load i64, ptr %8, align 8, !tbaa !49
  %10 = icmp uge i64 %6, %9
  br i1 %10, label %11, label %12

11:                                               ; preds = %2
  store ptr null, ptr %3, align 8
  br label %19

12:                                               ; preds = %2
  %13 = load ptr, ptr %4, align 8, !tbaa !9
  %14 = getelementptr inbounds nuw %struct.lexbor_array_t, ptr %13, i32 0, i32 0
  %15 = load ptr, ptr %14, align 8, !tbaa !45
  %16 = load i64, ptr %5, align 8, !tbaa !50
  %17 = getelementptr inbounds nuw ptr, ptr %15, i64 %16
  %18 = load ptr, ptr %17, align 8, !tbaa !9
  store ptr %18, ptr %3, align 8
  br label %19

19:                                               ; preds = %12, %11
  %20 = load ptr, ptr %3, align 8
  ret ptr %20
}

; Function Attrs: inlinehint nounwind uwtable
define internal ptr @lxb_html_tree_open_elements_get(ptr noundef %0, i64 noundef %1) #3 {
  %3 = alloca ptr, align 8
  %4 = alloca i64, align 8
  store ptr %0, ptr %3, align 8, !tbaa !4
  store i64 %1, ptr %4, align 8, !tbaa !50
  %5 = load ptr, ptr %3, align 8, !tbaa !4
  %6 = getelementptr inbounds nuw %struct.lxb_html_tree, ptr %5, i32 0, i32 4
  %7 = load ptr, ptr %6, align 8, !tbaa !44
  %8 = load i64, ptr %4, align 8, !tbaa !50
  %9 = call ptr @lexbor_array_get(ptr noundef %7, i64 noundef %8)
  ret ptr %9
}

; Function Attrs: inlinehint nounwind uwtable
define internal zeroext i1 @lxb_html_tree_insertion_mode_in_body_body(ptr noundef %0, ptr noundef %1) #3 {
  %3 = alloca i1, align 1
  %4 = alloca ptr, align 8
  %5 = alloca ptr, align 8
  %6 = alloca ptr, align 8
  %7 = alloca ptr, align 8
  %8 = alloca ptr, align 8
  %9 = alloca i32, align 4
  store ptr %0, ptr %4, align 8, !tbaa !4
  store ptr %1, ptr %5, align 8, !tbaa !9
  call void @llvm.lifetime.start.p0(i64 8, ptr %6) #5
  call void @llvm.lifetime.start.p0(i64 8, ptr %7) #5
  call void @llvm.lifetime.start.p0(i64 8, ptr %8) #5
  %10 = load ptr, ptr %4, align 8, !tbaa !4
  %11 = load ptr, ptr %5, align 8, !tbaa !9
  call void @lxb_html_tree_parse_error(ptr noundef %10, ptr noundef %11, i32 noundef 0)
  %12 = load ptr, ptr %4, align 8, !tbaa !4
  %13 = call ptr @lxb_html_tree_open_elements_get(ptr noundef %12, i64 noundef 1)
  store ptr %13, ptr %6, align 8, !tbaa !37
  %14 = load ptr, ptr %6, align 8, !tbaa !37
  %15 = icmp eq ptr %14, null
  br i1 %15, label %21, label %16

16:                                               ; preds = %2
  %17 = load ptr, ptr %6, align 8, !tbaa !37
  %18 = getelementptr inbounds nuw %struct.lxb_dom_node, ptr %17, i32 0, i32 1
  %19 = load i64, ptr %18, align 8, !tbaa !51
  %20 = icmp ne i64 %19, 31
  br i1 %20, label %21, label %22

21:                                               ; preds = %16, %2
  store i1 true, ptr %3, align 1
  store i32 1, ptr %9, align 4
  br label %49

22:                                               ; preds = %16
  %23 = load ptr, ptr %4, align 8, !tbaa !4
  %24 = call ptr @lxb_html_tree_open_elements_find_reverse(ptr noundef %23, i64 noundef 179, i64 noundef 2, ptr noundef null)
  store ptr %24, ptr %7, align 8, !tbaa !37
  %25 = load ptr, ptr %7, align 8, !tbaa !37
  %26 = icmp ne ptr %25, null
  br i1 %26, label %27, label %28

27:                                               ; preds = %22
  store i1 true, ptr %3, align 1
  store i32 1, ptr %9, align 4
  br label %49

28:                                               ; preds = %22
  %29 = load ptr, ptr %4, align 8, !tbaa !4
  %30 = getelementptr inbounds nuw %struct.lxb_html_tree, ptr %29, i32 0, i32 10
  store i8 0, ptr %30, align 1, !tbaa !28
  %31 = load ptr, ptr %6, align 8, !tbaa !37
  store ptr %31, ptr %8, align 8, !tbaa !73
  %32 = load ptr, ptr %4, align 8, !tbaa !4
  %33 = load ptr, ptr %8, align 8, !tbaa !73
  %34 = load ptr, ptr %5, align 8, !tbaa !9
  %35 = load ptr, ptr %6, align 8, !tbaa !37
  %36 = getelementptr inbounds nuw %struct.lxb_dom_node, ptr %35, i32 0, i32 3
  %37 = load i64, ptr %36, align 8, !tbaa !55
  %38 = call i32 @lxb_html_tree_append_attributes(ptr noundef %32, ptr noundef %33, ptr noundef %34, i64 noundef %37)
  %39 = load ptr, ptr %4, align 8, !tbaa !4
  %40 = getelementptr inbounds nuw %struct.lxb_html_tree, ptr %39, i32 0, i32 18
  store i32 %38, ptr %40, align 8, !tbaa !25
  %41 = load ptr, ptr %4, align 8, !tbaa !4
  %42 = getelementptr inbounds nuw %struct.lxb_html_tree, ptr %41, i32 0, i32 18
  %43 = load i32, ptr %42, align 8, !tbaa !25
  %44 = icmp ne i32 %43, 0
  br i1 %44, label %45, label %48

45:                                               ; preds = %28
  %46 = load ptr, ptr %4, align 8, !tbaa !4
  %47 = call zeroext i1 @lxb_html_tree_process_abort(ptr noundef %46)
  store i1 %47, ptr %3, align 1
  store i32 1, ptr %9, align 4
  br label %49

48:                                               ; preds = %28
  store i1 true, ptr %3, align 1
  store i32 1, ptr %9, align 4
  br label %49

49:                                               ; preds = %48, %45, %27, %21
  call void @llvm.lifetime.end.p0(i64 8, ptr %8) #5
  call void @llvm.lifetime.end.p0(i64 8, ptr %7) #5
  call void @llvm.lifetime.end.p0(i64 8, ptr %6) #5
  %50 = load i1, ptr %3, align 1
  ret i1 %50
}