; Function Attrs: inlinehint nounwind uwtable
define internal fastcc zeroext i1 @lxb_html_tree_insertion_mode_in_body_body(ptr noundef %0, ptr noundef %1) unnamed_addr #3 {
  tail call void @lxb_html_tree_parse_error(ptr noundef %0, ptr noundef %1, i32 noundef 0) #6
  %3 = getelementptr i8, ptr %0, i64 32
  %.val = load ptr, ptr %3, align 8, !tbaa !33
  %4 = getelementptr inbounds nuw i8, ptr %.val, i64 16
  %5 = load i64, ptr %4, align 8, !tbaa !34
  %.not.i.i = icmp ugt i64 %5, 1
  br i1 %.not.i.i, label %lxb_html_tree_open_elements_get.exit, label %lxb_html_tree_open_elements_get.exit.thread

lxb_html_tree_open_elements_get.exit:             ; preds = %2
  %6 = load ptr, ptr %.val, align 8, !tbaa !36
  %7 = getelementptr inbounds nuw i8, ptr %6, i64 8
  %8 = load ptr, ptr %7, align 8, !tbaa !37
  %9 = icmp eq ptr %8, null
  br i1 %9, label %lxb_html_tree_open_elements_get.exit.thread, label %10

10:                                               ; preds = %lxb_html_tree_open_elements_get.exit
  %11 = getelementptr inbounds nuw i8, ptr %8, i64 8
  %12 = load i64, ptr %11, align 8, !tbaa !38
  %.not = icmp eq i64 %12, 31
  br i1 %.not, label %13, label %lxb_html_tree_open_elements_get.exit.thread

13:                                               ; preds = %10
  %14 = tail call ptr @lxb_html_tree_open_elements_find_reverse(ptr noundef nonnull %0, i64 noundef 179, i64 noundef 2, ptr noundef null) #6
  %.not18 = icmp eq ptr %14, null
  br i1 %.not18, label %15, label %lxb_html_tree_open_elements_get.exit.thread

15:                                               ; preds = %13
  %16 = getelementptr inbounds nuw i8, ptr %0, i64 81
  store i8 0, ptr %16, align 1, !tbaa !25
  %17 = getelementptr inbounds nuw i8, ptr %8, i64 24
  %18 = load i64, ptr %17, align 8, !tbaa !42
  %19 = tail call i32 @lxb_html_tree_append_attributes(ptr noundef nonnull %0, ptr noundef nonnull %8, ptr noundef %1, i64 noundef %18) #6
  %20 = getelementptr inbounds nuw i8, ptr %0, i64 112
  store i32 %19, ptr %20, align 8, !tbaa !22
  %.not19 = icmp eq i32 %19, 0
  br i1 %.not19, label %lxb_html_tree_open_elements_get.exit.thread, label %21

21:                                               ; preds = %15
  %22 = tail call zeroext i1 @lxb_html_tree_process_abort(ptr noundef nonnull %0) #6
  br label %lxb_html_tree_open_elements_get.exit.thread

lxb_html_tree_open_elements_get.exit.thread:      ; preds = %2, %15, %13, %lxb_html_tree_open_elements_get.exit, %10, %21
  %.0 = phi i1 [ %22, %21 ], [ true, %10 ], [ true, %lxb_html_tree_open_elements_get.exit ], [ true, %13 ], [ true, %15 ], [ true, %2 ]
  ret i1 %.0
}